target datalayout = "e-m:e-p270:32:32-p271:32:32-p272:64:64-i64:64-i128:128-f80:128-n8:16:32:64-S128"
target triple = "x86_64-pc-linux-gnu"

%struct._archiveHandle = type { %struct.Archive, i32, ptr, ptr, i64, i64, i32, %struct.sqlparseInfo, i64, i32, ptr, i64, i64, i64, ptr, ptr, ptr, ptr, ptr, ptr, ptr, ptr, ptr, ptr, ptr, ptr, ptr, ptr, ptr, ptr, ptr, ptr, ptr, ptr, ptr, ptr, ptr, ptr, ptr, ptr, ptr, ptr, ptr, ptr, i32, i32, i8, i32, i8, i32, ptr, ptr, ptr, ptr, i32, i32, ptr, ptr, ptr, %struct.pg_compress_specification, i8, i32, i32, ptr, ptr, ptr, ptr, ptr, i32, ptr, i64, i64, i32, i32, i32, i32, ptr, ptr }
%struct.Archive = type { ptr, ptr, i32, ptr, i32, i8, i32, i32, i32, ptr, i32, i8, ptr, ptr, i8, i32, ptr }
%struct.sqlparseInfo = type { i32, i8, ptr }
%struct.pg_compress_specification = type { i32, i32, i32, i32, i8, ptr }

; Function Attrs: nounwind uwtable
define dso_local void @DisconnectDatabase(ptr noundef %0) #0 {
  %2 = alloca ptr, align 8
  %3 = alloca ptr, align 8
  %4 = alloca [1 x i8], align 1
  %5 = alloca i32, align 4
  store ptr %0, ptr %2, align 8
  call void @llvm.lifetime.start.p0(i64 8, ptr %3) #9
  %6 = load ptr, ptr %2, align 8
  store ptr %6, ptr %3, align 8
  call void @llvm.lifetime.start.p0(i64 1, ptr %4) #9
  %7 = load ptr, ptr %3, align 8
  %8 = getelementptr inbounds nuw %struct._archiveHandle, ptr %7, i32 0, i32 42
  %9 = load ptr, ptr %8, align 8
  %10 = icmp ne ptr %9, null
  br i1 %10, label %12, label %11

11:                                               ; preds = %1
  store i32 1, ptr %5, align 4
  br label %37

12:                                               ; preds = %1
  %13 = load ptr, ptr %3, align 8
  %14 = getelementptr inbounds nuw %struct._archiveHandle, ptr %13, i32 0, i32 43
  %15 = load volatile ptr, ptr %14, align 8
  %16 = icmp ne ptr %15, null
  br i1 %16, label %17, label %31

17:                                               ; preds = %12
  %18 = load ptr, ptr %3, align 8
  %19 = getelementptr inbounds nuw %struct._archiveHandle, ptr %18, i32 0, i32 42
  %20 = load ptr, ptr %19, align 8
  %21 = call i32 @PQtransactionStatus(ptr noundef %20)
  %22 = icmp eq i32 %21, 1
  br i1 %22, label %23, label %29

23:                                               ; preds = %17
  %24 = load ptr, ptr %3, align 8
  %25 = getelementptr inbounds nuw %struct._archiveHandle, ptr %24, i32 0, i32 43
  %26 = load volatile ptr, ptr %25, align 8
  %27 = getelementptr inbounds [1 x i8], ptr %4, i64 0, i64 0
  %28 = call i32 @PQcancel(ptr noundef %26, ptr noundef %27, i32 noundef 1)
  br label %29

29:                                               ; preds = %23, %17
  %30 = load ptr, ptr %3, align 8
  call void @set_archive_cancel_info(ptr noundef %30, ptr noundef null)
  br label %31

31:                                               ; preds = %29, %12
  %32 = load ptr, ptr %3, align 8
  %33 = getelementptr inbounds nuw %struct._archiveHandle, ptr %32, i32 0, i32 42
  %34 = load ptr, ptr %33, align 8
  call void @PQfinish(ptr noundef %34)
  %35 = load ptr, ptr %3, align 8
  %36 = getelementptr inbounds nuw %struct._archiveHandle, ptr %35, i32 0, i32 42
  store ptr null, ptr %36, align 8
  store i32 0, ptr %5, align 4
  br label %37

37:                                               ; preds = %31, %11
  call void @llvm.lifetime.end.p0(i64 1, ptr %4) #9
  call void @llvm.lifetime.end.p0(i64 8, ptr %3) #9
  %38 = load i32, ptr %5, align 4
  switch i32 %38, label %40 [
    i32 0, label %39
    i32 1, label %39
  ]

39:                                               ; preds = %37, %37
  ret void

40:                                               ; preds = %37
  unreachable
}