; Function Attrs: nounwind uwtable
define dso_local void @DisconnectDatabase(ptr noundef %0) local_unnamed_addr #0 {
  %2 = alloca [1 x i8], align 1
  call void @llvm.lifetime.start.p0(i64 1, ptr nonnull %2) #11
  %3 = getelementptr inbounds nuw i8, ptr %0, i64 440
  %4 = load ptr, ptr %3, align 8
  %.not = icmp eq ptr %4, null
  br i1 %.not, label %17, label %5

5:                                                ; preds = %1
  %6 = getelementptr inbounds nuw i8, ptr %0, i64 448
  %7 = load volatile ptr, ptr %6, align 8
  %.not8 = icmp eq ptr %7, null
  br i1 %.not8, label %15, label %8

8:                                                ; preds = %5
  %9 = tail call i32 @PQtransactionStatus(ptr noundef nonnull %4) #11
  %10 = icmp eq i32 %9, 1
  br i1 %10, label %11, label %14

11:                                               ; preds = %8
  %12 = load volatile ptr, ptr %6, align 8
  %13 = call i32 @PQcancel(ptr noundef %12, ptr noundef nonnull %2, i32 noundef 1) #11
  br label %14

14:                                               ; preds = %11, %8
  call void @set_archive_cancel_info(ptr noundef nonnull %0, ptr noundef null) #11
  %.pre = load ptr, ptr %3, align 8
  br label %15

15:                                               ; preds = %14, %5
  %16 = phi ptr [ %.pre, %14 ], [ %4, %5 ]
  call void @PQfinish(ptr noundef %16) #11
  store ptr null, ptr %3, align 8
  br label %17

17:                                               ; preds = %1, %15
  call void @llvm.lifetime.end.p0(i64 1, ptr nonnull %2) #11
  ret void
}